target datalayout = "e-m:e-p270:32:32-p271:32:32-p272:64:64-i64:64-i128:128-f80:128-n8:16:32:64-S128"
target triple = "x86_64-pc-linux-gnu"

%"class.pxrInternal_v0_24__pxrReserved__::VtValue" = type { %"union.std::aligned_storage<8, 8>::type", %"class.pxrInternal_v0_24__pxrReserved__::TfPointerAndBits" }
%"union.std::aligned_storage<8, 8>::type" = type { [8 x i8] }
%"class.pxrInternal_v0_24__pxrReserved__::TfPointerAndBits" = type { ptr }
%"struct.pxrInternal_v0_24__pxrReserved__::VtValue::_TypeInfo" = type { ptr, ptr, i32, i8, i8, i8, ptr, ptr, ptr, ptr, ptr, ptr, ptr, ptr, ptr, ptr, ptr, ptr, ptr, ptr, ptr, ptr, ptr, ptr, ptr, ptr }

@_ZTIv = external constant ptr

; Function Attrs: mustprogress nounwind uwtable
define linkonce_odr noundef i64 @_ZN32pxrInternal_v0_24__pxrReserved__16TfPointerAndBitsIKNS_7VtValue9_TypeInfoEE9_GetAlignEv() #1 comdat align 2 {
  ret i64 8
}

; Function Attrs: noreturn nounwind uwtable
define linkonce_odr hidden void @__clang_call_terminate(ptr noundef %0) #11 comdat {
  %2 = call ptr @__cxa_begin_catch(ptr %0) #10
  call void @_ZSt9terminatev() #18
  unreachable
}

; Function Attrs: mustprogress nounwind uwtable
define linkonce_odr noundef i64 @_ZNK32pxrInternal_v0_24__pxrReserved__16TfPointerAndBitsIKNS_7VtValue9_TypeInfoEE11GetMaxValueEv(ptr noundef nonnull align 8 dereferenceable(8) %0) #1 comdat align 2 {
  %2 = alloca ptr, align 8
  store ptr %0, ptr %2, align 8
  %3 = call noundef i64 @_ZN32pxrInternal_v0_24__pxrReserved__16TfPointerAndBitsIKNS_7VtValue9_TypeInfoEE9_GetAlignEv() #10
  %4 = sub i64 %3, 1
  ret i64 %4
}

; Function Attrs: mustprogress nounwind uwtable
define linkonce_odr noundef ptr @_ZNK32pxrInternal_v0_24__pxrReserved__16TfPointerAndBitsIKNS_7VtValue9_TypeInfoEE6_AsPtrEm(ptr noundef nonnull align 8 dereferenceable(8) %0, i64 noundef %1) #1 comdat align 2 {
  %3 = alloca ptr, align 8
  %4 = alloca i64, align 8
  store ptr %0, ptr %3, align 8
  store i64 %1, ptr %4, align 8
  %5 = load i64, ptr %4, align 8
  %6 = inttoptr i64 %5 to ptr
  ret ptr %6
}

; Function Attrs: mustprogress nounwind uwtable
define linkonce_odr noundef i64 @_ZNK32pxrInternal_v0_24__pxrReserved__16TfPointerAndBitsIKNS_7VtValue9_TypeInfoEE11_GetBitMaskEv(ptr noundef nonnull align 8 dereferenceable(8) %0) #1 comdat align 2 personality ptr @__gxx_personality_v0 {
  %2 = alloca ptr, align 8
  store ptr %0, ptr %2, align 8
  %3 = load ptr, ptr %2, align 8
  %4 = invoke noundef i64 @_ZNK32pxrInternal_v0_24__pxrReserved__16TfPointerAndBitsIKNS_7VtValue9_TypeInfoEE11GetMaxValueEv(ptr noundef nonnull align 8 dereferenceable(8) %3)
          to label %5 unwind label %6

5:                                                ; preds = %1
  ret i64 %4

6:                                                ; preds = %1
  %7 = landingpad { ptr, i32 }
          catch ptr null
  %8 = extractvalue { ptr, i32 } %7, 0
  call void @__clang_call_terminate(ptr %8) #18
  unreachable
}

; Function Attrs: mustprogress nounwind uwtable
define linkonce_odr noundef ptr @_ZNK32pxrInternal_v0_24__pxrReserved__16TfPointerAndBitsIKNS_7VtValue9_TypeInfoEE7_GetPtrEv(ptr noundef nonnull align 8 dereferenceable(8) %0) #1 comdat align 2 {
  %2 = alloca ptr, align 8
  store ptr %0, ptr %2, align 8
  %3 = load ptr, ptr %2, align 8
  %4 = getelementptr inbounds nuw %"class.pxrInternal_v0_24__pxrReserved__::TfPointerAndBits", ptr %3, i32 0, i32 0
  %5 = load ptr, ptr %4, align 8
  %6 = call noundef i64 @_ZNK32pxrInternal_v0_24__pxrReserved__16TfPointerAndBitsIKNS_7VtValue9_TypeInfoEE6_AsIntEPS3_(ptr noundef nonnull align 8 dereferenceable(8) %3, ptr noundef %5) #10
  %7 = call noundef i64 @_ZNK32pxrInternal_v0_24__pxrReserved__16TfPointerAndBitsIKNS_7VtValue9_TypeInfoEE11_GetBitMaskEv(ptr noundef nonnull align 8 dereferenceable(8) %3) #10
  %8 = xor i64 %7, -1
  %9 = and i64 %6, %8
  %10 = call noundef ptr @_ZNK32pxrInternal_v0_24__pxrReserved__16TfPointerAndBitsIKNS_7VtValue9_TypeInfoEE6_AsPtrEm(ptr noundef nonnull align 8 dereferenceable(8) %3, i64 noundef %9) #10
  ret ptr %10
}

; Function Attrs: mustprogress nounwind uwtable
define linkonce_odr noundef i64 @_ZNK32pxrInternal_v0_24__pxrReserved__16TfPointerAndBitsIKNS_7VtValue9_TypeInfoEE6_AsIntEPS3_(ptr noundef nonnull align 8 dereferenceable(8) %0, ptr noundef %1) #1 comdat align 2 {
  %3 = alloca ptr, align 8
  %4 = alloca ptr, align 8
  store ptr %0, ptr %3, align 8
  store ptr %1, ptr %4, align 8
  %5 = load ptr, ptr %4, align 8
  %6 = ptrtoint ptr %5 to i64
  ret i64 %6
}

; Function Attrs: mustprogress uwtable
define linkonce_odr noundef nonnull align 8 dereferenceable(16) ptr @_ZNK32pxrInternal_v0_24__pxrReserved__7VtValue9_TypeInfo16GetElementTypeidERKNSt15aligned_storageILm8ELm8EE4typeE(ptr noundef nonnull align 8 dereferenceable(184) %0, ptr noundef nonnull align 8 dereferenceable(8) %1) #0 comdat align 2 {
  %3 = alloca ptr, align 8
  %4 = alloca ptr, align 8
  store ptr %0, ptr %3, align 8
  store ptr %1, ptr %4, align 8
  %5 = load ptr, ptr %3, align 8
  %6 = getelementptr inbounds nuw %"struct.pxrInternal_v0_24__pxrReserved__::VtValue::_TypeInfo", ptr %5, i32 0, i32 18
  %7 = load ptr, ptr %6, align 8
  %8 = load ptr, ptr %4, align 8
  %9 = call noundef nonnull align 8 dereferenceable(16) ptr %7(ptr noundef nonnull align 8 dereferenceable(8) %8)
  ret ptr %9
}

; Function Attrs: mustprogress nounwind uwtable
define linkonce_odr noundef ptr @_ZNK32pxrInternal_v0_24__pxrReserved__16TfPointerAndBitsIKNS_7VtValue9_TypeInfoEE3GetEv(ptr noundef nonnull align 8 dereferenceable(8) %0) #1 comdat align 2 {
  %2 = alloca ptr, align 8
  store ptr %0, ptr %2, align 8
  %3 = load ptr, ptr %2, align 8
  %4 = call noundef ptr @_ZNK32pxrInternal_v0_24__pxrReserved__16TfPointerAndBitsIKNS_7VtValue9_TypeInfoEE7_GetPtrEv(ptr noundef nonnull align 8 dereferenceable(8) %3) #10
  ret ptr %4
}

; Function Attrs: mustprogress nounwind uwtable
define linkonce_odr noundef i64 @_ZNK32pxrInternal_v0_24__pxrReserved__16TfPointerAndBitsIKNS_7VtValue9_TypeInfoEE10GetLiteralEv(ptr noundef nonnull align 8 dereferenceable(8) %0) #1 comdat align 2 {
  %2 = alloca ptr, align 8
  store ptr %0, ptr %2, align 8
  %3 = load ptr, ptr %2, align 8
  %4 = getelementptr inbounds nuw %"class.pxrInternal_v0_24__pxrReserved__::TfPointerAndBits", ptr %3, i32 0, i32 0
  %5 = load ptr, ptr %4, align 8
  %6 = call noundef i64 @_ZNK32pxrInternal_v0_24__pxrReserved__16TfPointerAndBitsIKNS_7VtValue9_TypeInfoEE6_AsIntEPS3_(ptr noundef nonnull align 8 dereferenceable(8) %3, ptr noundef %5) #10
  ret i64 %6
}

; Function Attrs: mustprogress uwtable
define noundef nonnull align 8 dereferenceable(16) ptr @_ZNK32pxrInternal_v0_24__pxrReserved__7VtValue16GetElementTypeidEv(ptr noundef nonnull align 8 dereferenceable(16) %0) #0 align 2 {
  %2 = alloca ptr, align 8
  store ptr %0, ptr %2, align 8
  %3 = load ptr, ptr %2, align 8
  %4 = getelementptr inbounds nuw %"class.pxrInternal_v0_24__pxrReserved__::VtValue", ptr %3, i32 0, i32 1
  %5 = call noundef i64 @_ZNK32pxrInternal_v0_24__pxrReserved__16TfPointerAndBitsIKNS_7VtValue9_TypeInfoEE10GetLiteralEv(ptr noundef nonnull align 8 dereferenceable(8) %4) #10
  %6 = icmp ne i64 %5, 0
  br i1 %6, label %7, label %12

7:                                                ; preds = %1
  %8 = getelementptr inbounds nuw %"class.pxrInternal_v0_24__pxrReserved__::VtValue", ptr %3, i32 0, i32 1
  %9 = call noundef ptr @_ZNK32pxrInternal_v0_24__pxrReserved__16TfPointerAndBitsIKNS_7VtValue9_TypeInfoEE3GetEv(ptr noundef nonnull align 8 dereferenceable(8) %8) #10
  %10 = getelementptr inbounds nuw %"class.pxrInternal_v0_24__pxrReserved__::VtValue", ptr %3, i32 0, i32 0
  %11 = call noundef nonnull align 8 dereferenceable(16) ptr @_ZNK32pxrInternal_v0_24__pxrReserved__7VtValue9_TypeInfo16GetElementTypeidERKNSt15aligned_storageILm8ELm8EE4typeE(ptr noundef nonnull align 8 dereferenceable(184) %9, ptr noundef nonnull align 8 dereferenceable(8) %10)
  br label %13

12:                                               ; preds = %1
  br label %13

13:                                               ; preds = %12, %7
  %14 = phi ptr [ %11, %7 ], [ @_ZTIv, %12 ]
  ret ptr %14
}